; Function Attrs: nounwind uwtable
define dso_local noundef ptr @php_output_handler_alias(ptr noundef %0, i64 noundef %1) local_unnamed_addr #0 {
  %3 = tail call ptr @zend_hash_str_find(ptr noundef nonnull @php_output_handler_aliases, ptr noundef %0, i64 noundef %1) #22
  %.not.i = icmp eq ptr %3, null
  br i1 %.not.i, label %zend_hash_str_find_ptr.exit, label %4

4:                                                ; preds = %2
  %5 = load ptr, ptr %3, align 8, !tbaa !8, !nonnull !81, !noundef !81
  br label %zend_hash_str_find_ptr.exit

zend_hash_str_find_ptr.exit:                      ; preds = %2, %4
  %.0.i = phi ptr [ %5, %4 ], [ null, %2 ]
  ret ptr %.0.i
}